
kernel_optimization/kernel.elf:     file format elf32-littlearm


Disassembly of section .text:

00008000 <__start>:
    8000:	e10f0000 	mrs	r0, CPSR
    8004:	e321f0d2 	msr	CPSR_c, #210	; 0xd2
    8008:	e59fd034 	ldr	sp, [pc, #52]	; 8044 <hang+0x8>
    800c:	e121f000 	msr	CPSR_c, r0
    8010:	e59fd030 	ldr	sp, [pc, #48]	; 8048 <hang+0xc>
    8014:	e59f0030 	ldr	r0, [pc, #48]	; 804c <hang+0x10>
    8018:	e59f1030 	ldr	r1, [pc, #48]	; 8050 <hang+0x14>
    801c:	e3a02000 	mov	r2, #0
    8020:	e3a03000 	mov	r3, #0
    8024:	e3a04000 	mov	r4, #0
    8028:	e3a05000 	mov	r5, #0

0000802c <bss_loop>:
    802c:	e8a0003c 	stmia	r0!, {r2, r3, r4, r5}
    8030:	e1500001 	cmp	r0, r1
    8034:	3afffffc 	bcc	802c <bss_loop>
    8038:	eb00005d 	bl	81b4 <kernel_main>

0000803c <hang>:
    803c:	e320f003 	wfi
    8040:	eafffffd 	b	803c <hang>
    8044:	0012d000 	andseq	sp, r2, r0
    8048:	0011c000 	andseq	ip, r1, r0
    804c:	0000b000 	andeq	fp, r0, r0
    8050:	0000c000 	andeq	ip, r0, r0

00008054 <gpio_config>:
    8054:	e3510007 	cmp	r1, #7
    8058:	93500035 	cmpls	r0, #53	; 0x35
    805c:	812fff1e 	bxhi	lr
    8060:	e30c2ccd 	movw	r2, #52429	; 0xcccd
    8064:	e34c2ccc 	movt	r2, #52428	; 0xcccc
    8068:	e0832290 	umull	r2, r3, r0, r2
    806c:	e1a0c1a3 	lsr	ip, r3, #3
    8070:	e6ef307c 	uxtb	r3, ip
    8074:	e1a03103 	lsl	r3, r3, #2
    8078:	e283343f 	add	r3, r3, #1056964608	; 0x3f000000
    807c:	e2833602 	add	r3, r3, #2097152	; 0x200000
    8080:	e5932000 	ldr	r2, [r3]
    8084:	e08cc10c 	add	ip, ip, ip, lsl #2
    8088:	e040008c 	sub	r0, r0, ip, lsl #1
    808c:	e6ef0070 	uxtb	r0, r0
    8090:	e0800080 	add	r0, r0, r0, lsl #1
    8094:	e3a0c007 	mov	ip, #7
    8098:	e1c2201c 	bic	r2, r2, ip, lsl r0
    809c:	e1820011 	orr	r0, r2, r1, lsl r0
    80a0:	e5830000 	str	r0, [r3]
    80a4:	e12fff1e 	bx	lr

000080a8 <gpio_set>:
    80a8:	e3500035 	cmp	r0, #53	; 0x35
    80ac:	812fff1e 	bxhi	lr
    80b0:	e350001f 	cmp	r0, #31
    80b4:	9a000006 	bls	80d4 <gpio_set+0x2c>
    80b8:	e2400020 	sub	r0, r0, #32
    80bc:	e3a03001 	mov	r3, #1
    80c0:	e1a00013 	lsl	r0, r3, r0
    80c4:	e3a03000 	mov	r3, #0
    80c8:	e3433f20 	movt	r3, #16160	; 0x3f20
    80cc:	e5830020 	str	r0, [r3, #32]
    80d0:	e12fff1e 	bx	lr
    80d4:	e3a03001 	mov	r3, #1
    80d8:	e1a00013 	lsl	r0, r3, r0
    80dc:	e3a03000 	mov	r3, #0
    80e0:	e3433f20 	movt	r3, #16160	; 0x3f20
    80e4:	e583001c 	str	r0, [r3, #28]
    80e8:	e12fff1e 	bx	lr

000080ec <gpio_clr>:
    80ec:	e3500035 	cmp	r0, #53	; 0x35
    80f0:	812fff1e 	bxhi	lr
    80f4:	e350001f 	cmp	r0, #31
    80f8:	9a000006 	bls	8118 <gpio_clr+0x2c>
    80fc:	e2400020 	sub	r0, r0, #32
    8100:	e3a03001 	mov	r3, #1
    8104:	e1a00013 	lsl	r0, r3, r0
    8108:	e3a03000 	mov	r3, #0
    810c:	e3433f20 	movt	r3, #16160	; 0x3f20
    8110:	e583002c 	str	r0, [r3, #44]	; 0x2c
    8114:	e12fff1e 	bx	lr
    8118:	e3a03001 	mov	r3, #1
    811c:	e1a00013 	lsl	r0, r3, r0
    8120:	e3a03000 	mov	r3, #0
    8124:	e3433f20 	movt	r3, #16160	; 0x3f20
    8128:	e5830028 	str	r0, [r3, #40]	; 0x28
    812c:	e12fff1e 	bx	lr

00008130 <gpio_set_pull>:
    8130:	e3510002 	cmp	r1, #2
    8134:	93500035 	cmpls	r0, #53	; 0x35
    8138:	812fff1e 	bxhi	lr
    813c:	e92d4038 	push	{r3, r4, r5, lr}
    8140:	e1a04000 	mov	r4, r0
    8144:	e3a03000 	mov	r3, #0
    8148:	e3433f20 	movt	r3, #16160	; 0x3f20
    814c:	e5831094 	str	r1, [r3, #148]	; 0x94
    8150:	e3a00096 	mov	r0, #150	; 0x96
    8154:	eb0001a0 	bl	87dc <delay_cycles>
    8158:	e354001f 	cmp	r4, #31
    815c:	9a00000a 	bls	818c <gpio_set_pull+0x5c>
    8160:	e2440020 	sub	r0, r4, #32
    8164:	e3a04001 	mov	r4, #1
    8168:	e1a00014 	lsl	r0, r4, r0
    816c:	e3a05000 	mov	r5, #0
    8170:	e3435f20 	movt	r5, #16160	; 0x3f20
    8174:	e585009c 	str	r0, [r5, #156]	; 0x9c
    8178:	e3a00096 	mov	r0, #150	; 0x96
    817c:	eb000196 	bl	87dc <delay_cycles>
    8180:	e3a03000 	mov	r3, #0
    8184:	e585309c 	str	r3, [r5, #156]	; 0x9c
    8188:	e8bd8038 	pop	{r3, r4, r5, pc}
    818c:	e3a00001 	mov	r0, #1
    8190:	e1a00410 	lsl	r0, r0, r4
    8194:	e3a05000 	mov	r5, #0
    8198:	e3435f20 	movt	r5, #16160	; 0x3f20
    819c:	e5850098 	str	r0, [r5, #152]	; 0x98
    81a0:	e3a00096 	mov	r0, #150	; 0x96
    81a4:	eb00018c 	bl	87dc <delay_cycles>
    81a8:	e3a03000 	mov	r3, #0
    81ac:	e5853098 	str	r3, [r5, #152]	; 0x98
    81b0:	e8bd8038 	pop	{r3, r4, r5, pc}

000081b4 <kernel_main>:
    81b4:	e92d4800 	push	{fp, lr}
    81b8:	e28db004 	add	fp, sp, #4
    81bc:	e24dd010 	sub	sp, sp, #16
    81c0:	e3a03001 	mov	r3, #1
    81c4:	e50b300c 	str	r3, [fp, #-12]
    81c8:	eb000131 	bl	8694 <uart_init>
    81cc:	e3a03000 	mov	r3, #0
    81d0:	e50b3008 	str	r3, [fp, #-8]
    81d4:	ea00000c 	b	820c <kernel_main+0x58>
    81d8:	e30b37d0 	movw	r3, #47056	; 0xb7d0
    81dc:	e3403000 	movt	r3, #0
    81e0:	e51b2008 	ldr	r2, [fp, #-8]
    81e4:	e51b1008 	ldr	r1, [fp, #-8]
    81e8:	e7831102 	str	r1, [r3, r2, lsl #2]
    81ec:	e30b3000 	movw	r3, #45056	; 0xb000
    81f0:	e3403000 	movt	r3, #0
    81f4:	e51b2008 	ldr	r2, [fp, #-8]
    81f8:	e51b1008 	ldr	r1, [fp, #-8]
    81fc:	e7831102 	str	r1, [r3, r2, lsl #2]
    8200:	e51b3008 	ldr	r3, [fp, #-8]
    8204:	e2833001 	add	r3, r3, #1
    8208:	e50b3008 	str	r3, [fp, #-8]
    820c:	e51b3008 	ldr	r3, [fp, #-8]
    8210:	e3530f7d 	cmp	r3, #500	; 0x1f4
    8214:	baffffef 	blt	81d8 <kernel_main+0x24>
    8218:	e3090000 	movw	r0, #36864	; 0x9000
    821c:	e3400000 	movt	r0, #0
    8220:	eb000087 	bl	8444 <printk>
    8224:	eb000155 	bl	8780 <tic>
    8228:	e30b07d0 	movw	r0, #47056	; 0xb7d0
    822c:	e3400000 	movt	r0, #0
    8230:	eb0001e1 	bl	89bc <optimize_me>
    8234:	eb00015e 	bl	87b4 <toc>
    8238:	e50b0010 	str	r0, [fp, #-16]
    823c:	e3090024 	movw	r0, #36900	; 0x9024
    8240:	e3400000 	movt	r0, #0
    8244:	e51b1010 	ldr	r1, [fp, #-16]
    8248:	eb00007d 	bl	8444 <printk>
    824c:	e3090028 	movw	r0, #36904	; 0x9028
    8250:	e3400000 	movt	r0, #0
    8254:	eb00007a 	bl	8444 <printk>
    8258:	eb000148 	bl	8780 <tic>
    825c:	e30b0000 	movw	r0, #45056	; 0xb000
    8260:	e3400000 	movt	r0, #0
    8264:	eb00017e 	bl	8864 <unoptimized>
    8268:	eb000151 	bl	87b4 <toc>
    826c:	e50b0010 	str	r0, [fp, #-16]
    8270:	e3090024 	movw	r0, #36900	; 0x9024
    8274:	e3400000 	movt	r0, #0
    8278:	e51b1010 	ldr	r1, [fp, #-16]
    827c:	eb000070 	bl	8444 <printk>
    8280:	e3a03000 	mov	r3, #0
    8284:	e50b3008 	str	r3, [fp, #-8]
    8288:	ea000012 	b	82d8 <kernel_main+0x124>
    828c:	e30b37d0 	movw	r3, #47056	; 0xb7d0
    8290:	e3403000 	movt	r3, #0
    8294:	e51b2008 	ldr	r2, [fp, #-8]
    8298:	e7932102 	ldr	r2, [r3, r2, lsl #2]
    829c:	e30b3000 	movw	r3, #45056	; 0xb000
    82a0:	e3403000 	movt	r3, #0
    82a4:	e51b1008 	ldr	r1, [fp, #-8]
    82a8:	e7933101 	ldr	r3, [r3, r1, lsl #2]
    82ac:	e1520003 	cmp	r2, r3
    82b0:	0a000005 	beq	82cc <kernel_main+0x118>
    82b4:	e309004c 	movw	r0, #36940	; 0x904c
    82b8:	e3400000 	movt	r0, #0
    82bc:	eb000060 	bl	8444 <printk>
    82c0:	e3a03000 	mov	r3, #0
    82c4:	e50b300c 	str	r3, [fp, #-12]
    82c8:	ea000005 	b	82e4 <kernel_main+0x130>
    82cc:	e51b3008 	ldr	r3, [fp, #-8]
    82d0:	e2833001 	add	r3, r3, #1
    82d4:	e50b3008 	str	r3, [fp, #-8]
    82d8:	e51b3008 	ldr	r3, [fp, #-8]
    82dc:	e3530f7d 	cmp	r3, #500	; 0x1f4
    82e0:	baffffe9 	blt	828c <kernel_main+0xd8>
    82e4:	e51b300c 	ldr	r3, [fp, #-12]
    82e8:	e3530000 	cmp	r3, #0
    82ec:	0a000002 	beq	82fc <kernel_main+0x148>
    82f0:	e3090068 	movw	r0, #36968	; 0x9068
    82f4:	e3400000 	movt	r0, #0
    82f8:	eb000051 	bl	8444 <printk>
    82fc:	e30806a0 	movw	r0, #34464	; 0x86a0
    8300:	e3400001 	movt	r0, #1
    8304:	eb000134 	bl	87dc <delay_cycles>
    8308:	eafffffb 	b	82fc <kernel_main+0x148>

0000830c <printnumk>:
    830c:	e92d4810 	push	{r4, fp, lr}
    8310:	e28db008 	add	fp, sp, #8
    8314:	e24dd024 	sub	sp, sp, #36	; 0x24
    8318:	e1a01000 	mov	r1, r0
    831c:	e14b22fc 	strd	r2, [fp, #-44]	; 0xffffffd4
    8320:	e1a03001 	mov	r3, r1
    8324:	e54b301d 	strb	r3, [fp, #-29]
    8328:	e3a03000 	mov	r3, #0
    832c:	e50b3010 	str	r3, [fp, #-16]
    8330:	e24b301c 	sub	r3, fp, #28
    8334:	e2833007 	add	r3, r3, #7
    8338:	e50b3014 	str	r3, [fp, #-20]
    833c:	e55b301d 	ldrb	r3, [fp, #-29]
    8340:	e3530008 	cmp	r3, #8
    8344:	1a000003 	bne	8358 <printnumk+0x4c>
    8348:	e3093084 	movw	r3, #36996	; 0x9084
    834c:	e3403000 	movt	r3, #0
    8350:	e50b3010 	str	r3, [fp, #-16]
    8354:	ea000005 	b	8370 <printnumk+0x64>
    8358:	e55b301d 	ldrb	r3, [fp, #-29]
    835c:	e3530010 	cmp	r3, #16
    8360:	1a000002 	bne	8370 <printnumk+0x64>
    8364:	e3093088 	movw	r3, #37000	; 0x9088
    8368:	e3403000 	movt	r3, #0
    836c:	e50b3010 	str	r3, [fp, #-16]
    8370:	e51b4014 	ldr	r4, [fp, #-20]
    8374:	e2443001 	sub	r3, r4, #1
    8378:	e50b3014 	str	r3, [fp, #-20]
    837c:	e55b201d 	ldrb	r2, [fp, #-29]
    8380:	e3a03000 	mov	r3, #0
    8384:	e14b02dc 	ldrd	r0, [fp, #-44]	; 0xffffffd4
    8388:	eb0001d0 	bl	8ad0 <__aeabi_uldivmod>
    838c:	e1a00002 	mov	r0, r2
    8390:	e1a01003 	mov	r1, r3
    8394:	e30a3000 	movw	r3, #40960	; 0xa000
    8398:	e3403000 	movt	r3, #0
    839c:	e0833000 	add	r3, r3, r0
    83a0:	e5d33000 	ldrb	r3, [r3]
    83a4:	e5c43000 	strb	r3, [r4]
    83a8:	e55b201d 	ldrb	r2, [fp, #-29]
    83ac:	e3a03000 	mov	r3, #0
    83b0:	e14b02dc 	ldrd	r0, [fp, #-44]	; 0xffffffd4
    83b4:	eb0001c5 	bl	8ad0 <__aeabi_uldivmod>
    83b8:	e1a02000 	mov	r2, r0
    83bc:	e1a03001 	mov	r3, r1
    83c0:	e14b22fc 	strd	r2, [fp, #-44]	; 0xffffffd4
    83c4:	e14b22dc 	ldrd	r2, [fp, #-44]	; 0xffffffd4
    83c8:	e1923003 	orrs	r3, r2, r3
    83cc:	1affffe7 	bne	8370 <printnumk+0x64>
    83d0:	e51b3010 	ldr	r3, [fp, #-16]
    83d4:	e3530000 	cmp	r3, #0
    83d8:	0a00000a 	beq	8408 <printnumk+0xfc>
    83dc:	ea000005 	b	83f8 <printnumk+0xec>
    83e0:	e51b3010 	ldr	r3, [fp, #-16]
    83e4:	e2832001 	add	r2, r3, #1
    83e8:	e50b2010 	str	r2, [fp, #-16]
    83ec:	e5d33000 	ldrb	r3, [r3]
    83f0:	e1a00003 	mov	r0, r3
    83f4:	eb0000b0 	bl	86bc <uart_put_byte>
    83f8:	e51b3010 	ldr	r3, [fp, #-16]
    83fc:	e5d33000 	ldrb	r3, [r3]
    8400:	e3530000 	cmp	r3, #0
    8404:	1afffff5 	bne	83e0 <printnumk+0xd4>
    8408:	ea000003 	b	841c <printnumk+0x110>
    840c:	e51b3014 	ldr	r3, [fp, #-20]
    8410:	e5d33000 	ldrb	r3, [r3]
    8414:	e1a00003 	mov	r0, r3
    8418:	eb0000a7 	bl	86bc <uart_put_byte>
    841c:	e51b3014 	ldr	r3, [fp, #-20]
    8420:	e2833001 	add	r3, r3, #1
    8424:	e50b3014 	str	r3, [fp, #-20]
    8428:	e24b301c 	sub	r3, fp, #28
    842c:	e2833008 	add	r3, r3, #8
    8430:	e51b2014 	ldr	r2, [fp, #-20]
    8434:	e1520003 	cmp	r2, r3
    8438:	1afffff3 	bne	840c <printnumk+0x100>
    843c:	e24bd008 	sub	sp, fp, #8
    8440:	e8bd8810 	pop	{r4, fp, pc}

00008444 <printk>:
    8444:	e92d000f 	push	{r0, r1, r2, r3}
    8448:	e92d4800 	push	{fp, lr}
    844c:	e28db004 	add	fp, sp, #4
    8450:	e24dd020 	sub	sp, sp, #32
    8454:	e28b3008 	add	r3, fp, #8
    8458:	e50b3020 	str	r3, [fp, #-32]
    845c:	ea000082 	b	866c <printk+0x228>
    8460:	e59b3004 	ldr	r3, [fp, #4]
    8464:	e5d33000 	ldrb	r3, [r3]
    8468:	e3530025 	cmp	r3, #37	; 0x25
    846c:	0a000006 	beq	848c <printk+0x48>
    8470:	e59b3004 	ldr	r3, [fp, #4]
    8474:	e2832001 	add	r2, r3, #1
    8478:	e58b2004 	str	r2, [fp, #4]
    847c:	e5d33000 	ldrb	r3, [r3]
    8480:	e1a00003 	mov	r0, r3
    8484:	eb00008c 	bl	86bc <uart_put_byte>
    8488:	ea000077 	b	866c <printk+0x228>
    848c:	e59b3004 	ldr	r3, [fp, #4]
    8490:	e2833001 	add	r3, r3, #1
    8494:	e58b3004 	str	r3, [fp, #4]
    8498:	e59b3004 	ldr	r3, [fp, #4]
    849c:	e5d33000 	ldrb	r3, [r3]
    84a0:	e353006f 	cmp	r3, #111	; 0x6f
    84a4:	0a000036 	beq	8584 <printk+0x140>
    84a8:	e353006f 	cmp	r3, #111	; 0x6f
    84ac:	ca000006 	bgt	84cc <printk+0x88>
    84b0:	e3530063 	cmp	r3, #99	; 0x63
    84b4:	0a00005a 	beq	8624 <printk+0x1e0>
    84b8:	e3530064 	cmp	r3, #100	; 0x64
    84bc:	0a00000e 	beq	84fc <printk+0xb8>
    84c0:	e3530025 	cmp	r3, #37	; 0x25
    84c4:	0a000060 	beq	864c <printk+0x208>
    84c8:	ea000062 	b	8658 <printk+0x214>
    84cc:	e3530073 	cmp	r3, #115	; 0x73
    84d0:	0a000041 	beq	85dc <printk+0x198>
    84d4:	e3530073 	cmp	r3, #115	; 0x73
    84d8:	ca000002 	bgt	84e8 <printk+0xa4>
    84dc:	e3530070 	cmp	r3, #112	; 0x70
    84e0:	0a000032 	beq	85b0 <printk+0x16c>
    84e4:	ea00005b 	b	8658 <printk+0x214>
    84e8:	e3530075 	cmp	r3, #117	; 0x75
    84ec:	0a000019 	beq	8558 <printk+0x114>
    84f0:	e3530078 	cmp	r3, #120	; 0x78
    84f4:	0a00002d 	beq	85b0 <printk+0x16c>
    84f8:	ea000056 	b	8658 <printk+0x214>
    84fc:	e51b3020 	ldr	r3, [fp, #-32]
    8500:	e2832004 	add	r2, r3, #4
    8504:	e50b2020 	str	r2, [fp, #-32]
    8508:	e5933000 	ldr	r3, [r3]
    850c:	e50b300c 	str	r3, [fp, #-12]
    8510:	e51b300c 	ldr	r3, [fp, #-12]
    8514:	e3530000 	cmp	r3, #0
    8518:	aa000008 	bge	8540 <printk+0xfc>
    851c:	e3a0002d 	mov	r0, #45	; 0x2d
    8520:	eb000065 	bl	86bc <uart_put_byte>
    8524:	e51b300c 	ldr	r3, [fp, #-12]
    8528:	e2633000 	rsb	r3, r3, #0
    852c:	e1a02003 	mov	r2, r3
    8530:	e1a03fc2 	asr	r3, r2, #31
    8534:	e3a0000a 	mov	r0, #10
    8538:	ebffff73 	bl	830c <printnumk>
    853c:	ea000047 	b	8660 <printk+0x21c>
    8540:	e51b300c 	ldr	r3, [fp, #-12]
    8544:	e1a02003 	mov	r2, r3
    8548:	e1a03fc2 	asr	r3, r2, #31
    854c:	e3a0000a 	mov	r0, #10
    8550:	ebffff6d 	bl	830c <printnumk>
    8554:	ea000041 	b	8660 <printk+0x21c>
    8558:	e51b3020 	ldr	r3, [fp, #-32]
    855c:	e2832004 	add	r2, r3, #4
    8560:	e50b2020 	str	r2, [fp, #-32]
    8564:	e5933000 	ldr	r3, [r3]
    8568:	e50b3010 	str	r3, [fp, #-16]
    856c:	e51b3010 	ldr	r3, [fp, #-16]
    8570:	e1a02003 	mov	r2, r3
    8574:	e3a03000 	mov	r3, #0
    8578:	e3a0000a 	mov	r0, #10
    857c:	ebffff62 	bl	830c <printnumk>
    8580:	ea000036 	b	8660 <printk+0x21c>
    8584:	e51b3020 	ldr	r3, [fp, #-32]
    8588:	e2832004 	add	r2, r3, #4
    858c:	e50b2020 	str	r2, [fp, #-32]
    8590:	e5933000 	ldr	r3, [r3]
    8594:	e50b3014 	str	r3, [fp, #-20]
    8598:	e51b3014 	ldr	r3, [fp, #-20]
    859c:	e1a02003 	mov	r2, r3
    85a0:	e3a03000 	mov	r3, #0
    85a4:	e3a00008 	mov	r0, #8
    85a8:	ebffff57 	bl	830c <printnumk>
    85ac:	ea00002b 	b	8660 <printk+0x21c>
    85b0:	e51b3020 	ldr	r3, [fp, #-32]
    85b4:	e2832004 	add	r2, r3, #4
    85b8:	e50b2020 	str	r2, [fp, #-32]
    85bc:	e5933000 	ldr	r3, [r3]
    85c0:	e50b3018 	str	r3, [fp, #-24]
    85c4:	e51b3018 	ldr	r3, [fp, #-24]
    85c8:	e1a02003 	mov	r2, r3
    85cc:	e3a03000 	mov	r3, #0
    85d0:	e3a00010 	mov	r0, #16
    85d4:	ebffff4c 	bl	830c <printnumk>
    85d8:	ea000020 	b	8660 <printk+0x21c>
    85dc:	e51b3020 	ldr	r3, [fp, #-32]
    85e0:	e2832004 	add	r2, r3, #4
    85e4:	e50b2020 	str	r2, [fp, #-32]
    85e8:	e5933000 	ldr	r3, [r3]
    85ec:	e50b3008 	str	r3, [fp, #-8]
    85f0:	ea000006 	b	8610 <printk+0x1cc>
    85f4:	e51b3008 	ldr	r3, [fp, #-8]
    85f8:	e5d33000 	ldrb	r3, [r3]
    85fc:	e1a00003 	mov	r0, r3
    8600:	eb00002d 	bl	86bc <uart_put_byte>
    8604:	e51b3008 	ldr	r3, [fp, #-8]
    8608:	e2833001 	add	r3, r3, #1
    860c:	e50b3008 	str	r3, [fp, #-8]
    8610:	e51b3008 	ldr	r3, [fp, #-8]
    8614:	e5d33000 	ldrb	r3, [r3]
    8618:	e3530000 	cmp	r3, #0
    861c:	1afffff4 	bne	85f4 <printk+0x1b0>
    8620:	ea00000e 	b	8660 <printk+0x21c>
    8624:	e51b3020 	ldr	r3, [fp, #-32]
    8628:	e2832004 	add	r2, r3, #4
    862c:	e50b2020 	str	r2, [fp, #-32]
    8630:	e5933000 	ldr	r3, [r3]
    8634:	e50b301c 	str	r3, [fp, #-28]
    8638:	e51b301c 	ldr	r3, [fp, #-28]
    863c:	e6ef3073 	uxtb	r3, r3
    8640:	e1a00003 	mov	r0, r3
    8644:	eb00001c 	bl	86bc <uart_put_byte>
    8648:	ea000004 	b	8660 <printk+0x21c>
    864c:	e3a00025 	mov	r0, #37	; 0x25
    8650:	eb000019 	bl	86bc <uart_put_byte>
    8654:	ea000001 	b	8660 <printk+0x21c>
    8658:	e3e03000 	mvn	r3, #0
    865c:	ea000007 	b	8680 <printk+0x23c>
    8660:	e59b3004 	ldr	r3, [fp, #4]
    8664:	e2833001 	add	r3, r3, #1
    8668:	e58b3004 	str	r3, [fp, #4]
    866c:	e59b3004 	ldr	r3, [fp, #4]
    8670:	e5d33000 	ldrb	r3, [r3]
    8674:	e3530000 	cmp	r3, #0
    8678:	1affff78 	bne	8460 <printk+0x1c>
    867c:	e3a03000 	mov	r3, #0
    8680:	e1a00003 	mov	r0, r3
    8684:	e24bd004 	sub	sp, fp, #4
    8688:	e8bd4800 	pop	{fp, lr}
    868c:	e28dd010 	add	sp, sp, #16
    8690:	e12fff1e 	bx	lr

00008694 <uart_init>:
    8694:	e52db004 	push	{fp}		; (str fp, [sp, #-4]!)
    8698:	e28db000 	add	fp, sp, #0
    869c:	e24bd000 	sub	sp, fp, #0
    86a0:	e49db004 	pop	{fp}		; (ldr fp, [sp], #4)
    86a4:	e12fff1e 	bx	lr

000086a8 <uart_close>:
    86a8:	e52db004 	push	{fp}		; (str fp, [sp, #-4]!)
    86ac:	e28db000 	add	fp, sp, #0
    86b0:	e24bd000 	sub	sp, fp, #0
    86b4:	e49db004 	pop	{fp}		; (ldr fp, [sp], #4)
    86b8:	e12fff1e 	bx	lr

000086bc <uart_put_byte>:
    86bc:	e52db004 	push	{fp}		; (str fp, [sp, #-4]!)
    86c0:	e28db000 	add	fp, sp, #0
    86c4:	e24dd00c 	sub	sp, sp, #12
    86c8:	e1a03000 	mov	r3, r0
    86cc:	e54b3005 	strb	r3, [fp, #-5]
    86d0:	e24bd000 	sub	sp, fp, #0
    86d4:	e49db004 	pop	{fp}		; (ldr fp, [sp], #4)
    86d8:	e12fff1e 	bx	lr

000086dc <uart_get_byte>:
    86dc:	e52db004 	push	{fp}		; (str fp, [sp, #-4]!)
    86e0:	e28db000 	add	fp, sp, #0
    86e4:	e3a03000 	mov	r3, #0
    86e8:	e1a00003 	mov	r0, r3
    86ec:	e24bd000 	sub	sp, fp, #0
    86f0:	e49db004 	pop	{fp}		; (ldr fp, [sp], #4)
    86f4:	e12fff1e 	bx	lr

000086f8 <timer_start>:
    86f8:	e52db004 	push	{fp}		; (str fp, [sp, #-4]!)
    86fc:	e28db000 	add	fp, sp, #0
    8700:	e24dd00c 	sub	sp, sp, #12
    8704:	e50b0008 	str	r0, [fp, #-8]
    8708:	e1a00000 	nop			; (mov r0, r0)
    870c:	e24bd000 	sub	sp, fp, #0
    8710:	e49db004 	pop	{fp}		; (ldr fp, [sp], #4)
    8714:	e12fff1e 	bx	lr

00008718 <timer_stop>:
    8718:	e52db004 	push	{fp}		; (str fp, [sp, #-4]!)
    871c:	e28db000 	add	fp, sp, #0
    8720:	e1a00000 	nop			; (mov r0, r0)
    8724:	e24bd000 	sub	sp, fp, #0
    8728:	e49db004 	pop	{fp}		; (ldr fp, [sp], #4)
    872c:	e12fff1e 	bx	lr

00008730 <timer_read>:
    8730:	e52db004 	push	{fp}		; (str fp, [sp, #-4]!)
    8734:	e28db000 	add	fp, sp, #0
    8738:	e3a03000 	mov	r3, #0
    873c:	e1a00003 	mov	r0, r3
    8740:	e24bd000 	sub	sp, fp, #0
    8744:	e49db004 	pop	{fp}		; (ldr fp, [sp], #4)
    8748:	e12fff1e 	bx	lr

0000874c <timer_is_pending>:
    874c:	e52db004 	push	{fp}		; (str fp, [sp, #-4]!)
    8750:	e28db000 	add	fp, sp, #0
    8754:	e3a03000 	mov	r3, #0
    8758:	e1a00003 	mov	r0, r3
    875c:	e24bd000 	sub	sp, fp, #0
    8760:	e49db004 	pop	{fp}		; (ldr fp, [sp], #4)
    8764:	e12fff1e 	bx	lr

00008768 <timer_clear_pending>:
    8768:	e52db004 	push	{fp}		; (str fp, [sp, #-4]!)
    876c:	e28db000 	add	fp, sp, #0
    8770:	e1a00000 	nop			; (mov r0, r0)
    8774:	e24bd000 	sub	sp, fp, #0
    8778:	e49db004 	pop	{fp}		; (ldr fp, [sp], #4)
    877c:	e12fff1e 	bx	lr

00008780 <tic>:
    8780:	e52db004 	push	{fp}		; (str fp, [sp, #-4]!)
    8784:	e28db000 	add	fp, sp, #0
    8788:	e3a03b2d 	mov	r3, #46080	; 0xb400
    878c:	e3433f00 	movt	r3, #16128	; 0x3f00
    8790:	e3e02000 	mvn	r2, #0
    8794:	e5832000 	str	r2, [r3]
    8798:	e30b3408 	movw	r3, #46088	; 0xb408
    879c:	e3433f00 	movt	r3, #16128	; 0x3f00
    87a0:	e3a02082 	mov	r2, #130	; 0x82
    87a4:	e5832000 	str	r2, [r3]
    87a8:	e24bd000 	sub	sp, fp, #0
    87ac:	e49db004 	pop	{fp}		; (ldr fp, [sp], #4)
    87b0:	e12fff1e 	bx	lr

000087b4 <toc>:
    87b4:	e52db004 	push	{fp}		; (str fp, [sp, #-4]!)
    87b8:	e28db000 	add	fp, sp, #0
    87bc:	e30b3404 	movw	r3, #46084	; 0xb404
    87c0:	e3433f00 	movt	r3, #16128	; 0x3f00
    87c4:	e5933000 	ldr	r3, [r3]
    87c8:	e1e03003 	mvn	r3, r3
    87cc:	e1a00003 	mov	r0, r3
    87d0:	e24bd000 	sub	sp, fp, #0
    87d4:	e49db004 	pop	{fp}		; (ldr fp, [sp], #4)
    87d8:	e12fff1e 	bx	lr

000087dc <delay_cycles>:
    87dc:	e2500001 	subs	r0, r0, #1
    87e0:	1afffffd 	bne	87dc <delay_cycles>
    87e4:	e1a0f00e 	mov	pc, lr

000087e8 <read_cpsr>:
    87e8:	e10f0000 	mrs	r0, CPSR
    87ec:	e1a0f00e 	mov	pc, lr

000087f0 <write_cpsr>:
    87f0:	e129f000 	msr	CPSR_fc, r0
    87f4:	e1a0f00e 	mov	pc, lr

000087f8 <disable_interrupts>:
    87f8:	e10f0000 	mrs	r0, CPSR
    87fc:	e3a01d07 	mov	r1, #448	; 0x1c0
    8800:	e1800001 	orr	r0, r0, r1
    8804:	e129f000 	msr	CPSR_fc, r0
    8808:	e1a0f00e 	mov	pc, lr

0000880c <enable_interrupts>:
    880c:	e10f0000 	mrs	r0, CPSR
    8810:	e3a01d07 	mov	r1, #448	; 0x1c0
    8814:	e1c00001 	bic	r0, r0, r1
    8818:	e129f000 	msr	CPSR_fc, r0
    881c:	e1a0f00e 	mov	pc, lr

00008820 <func2>:
    8820:	e52db004 	push	{fp}		; (str fp, [sp, #-4]!)
    8824:	e28db000 	add	fp, sp, #0
    8828:	e24dd00c 	sub	sp, sp, #12
    882c:	e50b0008 	str	r0, [fp, #-8]
    8830:	e50b100c 	str	r1, [fp, #-12]
    8834:	e51b200c 	ldr	r2, [fp, #-12]
    8838:	e1a03002 	mov	r3, r2
    883c:	e1a03103 	lsl	r3, r3, #2
    8840:	e0833002 	add	r3, r3, r2
    8844:	e1a02103 	lsl	r2, r3, #2
    8848:	e0832002 	add	r2, r3, r2
    884c:	e51b3008 	ldr	r3, [fp, #-8]
    8850:	e0823003 	add	r3, r2, r3
    8854:	e1a00003 	mov	r0, r3
    8858:	e24bd000 	sub	sp, fp, #0
    885c:	e49db004 	pop	{fp}		; (ldr fp, [sp], #4)
    8860:	e12fff1e 	bx	lr

00008864 <unoptimized>:
    8864:	e92d4870 	push	{r4, r5, r6, fp, lr}
    8868:	e28db010 	add	fp, sp, #16
    886c:	e24dd01c 	sub	sp, sp, #28
    8870:	e50b0028 	str	r0, [fp, #-40]	; 0x28
    8874:	e3a03000 	mov	r3, #0
    8878:	e50b3018 	str	r3, [fp, #-24]
    887c:	ea000037 	b	8960 <unoptimized+0xfc>
    8880:	e3a03011 	mov	r3, #17
    8884:	e50b3020 	str	r3, [fp, #-32]
    8888:	e3a03000 	mov	r3, #0
    888c:	e50b301c 	str	r3, [fp, #-28]
    8890:	ea00002c 	b	8948 <unoptimized+0xe4>
    8894:	e3a03002 	mov	r3, #2
    8898:	e50b3024 	str	r3, [fp, #-36]	; 0x24
    889c:	e51b3024 	ldr	r3, [fp, #-36]	; 0x24
    88a0:	e2833001 	add	r3, r3, #1
    88a4:	e50b3024 	str	r3, [fp, #-36]	; 0x24
    88a8:	e51b3024 	ldr	r3, [fp, #-36]	; 0x24
    88ac:	e2432002 	sub	r2, r3, #2
    88b0:	e1a03002 	mov	r3, r2
    88b4:	e1a03083 	lsl	r3, r3, #1
    88b8:	e0833002 	add	r3, r3, r2
    88bc:	e50b3024 	str	r3, [fp, #-36]	; 0x24
    88c0:	e51b301c 	ldr	r3, [fp, #-28]
    88c4:	e1a03103 	lsl	r3, r3, #2
    88c8:	e51b2028 	ldr	r2, [fp, #-40]	; 0x28
    88cc:	e0824003 	add	r4, r2, r3
    88d0:	e51b301c 	ldr	r3, [fp, #-28]
    88d4:	e1a03103 	lsl	r3, r3, #2
    88d8:	e51b2028 	ldr	r2, [fp, #-40]	; 0x28
    88dc:	e0823003 	add	r3, r2, r3
    88e0:	e5933000 	ldr	r3, [r3]
    88e4:	e51b2020 	ldr	r2, [fp, #-32]
    88e8:	e0030392 	mul	r3, r2, r3
    88ec:	e2835010 	add	r5, r3, #16
    88f0:	e51b3018 	ldr	r3, [fp, #-24]
    88f4:	e1a03103 	lsl	r3, r3, #2
    88f8:	e51b2028 	ldr	r2, [fp, #-40]	; 0x28
    88fc:	e0823003 	add	r3, r2, r3
    8900:	e5936000 	ldr	r6, [r3]
    8904:	e51b0018 	ldr	r0, [fp, #-24]
    8908:	e51b101c 	ldr	r1, [fp, #-28]
    890c:	ebffffc3 	bl	8820 <func2>
    8910:	e1a03000 	mov	r3, r0
    8914:	e0030396 	mul	r3, r6, r3
    8918:	e0852003 	add	r2, r5, r3
    891c:	e51b3024 	ldr	r3, [fp, #-36]	; 0x24
    8920:	e0823003 	add	r3, r2, r3
    8924:	e283200f 	add	r2, r3, #15
    8928:	e3530000 	cmp	r3, #0
    892c:	b1a03002 	movlt	r3, r2
    8930:	a1a03003 	movge	r3, r3
    8934:	e1a03243 	asr	r3, r3, #4
    8938:	e5843000 	str	r3, [r4]
    893c:	e51b301c 	ldr	r3, [fp, #-28]
    8940:	e2833001 	add	r3, r3, #1
    8944:	e50b301c 	str	r3, [fp, #-28]
    8948:	e51b301c 	ldr	r3, [fp, #-28]
    894c:	e3530f7d 	cmp	r3, #500	; 0x1f4
    8950:	baffffcf 	blt	8894 <unoptimized+0x30>
    8954:	e51b3018 	ldr	r3, [fp, #-24]
    8958:	e2833001 	add	r3, r3, #1
    895c:	e50b3018 	str	r3, [fp, #-24]
    8960:	e51b3018 	ldr	r3, [fp, #-24]
    8964:	e3530f7d 	cmp	r3, #500	; 0x1f4
    8968:	baffffc4 	blt	8880 <unoptimized+0x1c>
    896c:	e24bd010 	sub	sp, fp, #16
    8970:	e8bd4870 	pop	{r4, r5, r6, fp, lr}
    8974:	e12fff1e 	bx	lr

00008978 <func>:
    8978:	e52db004 	push	{fp}		; (str fp, [sp, #-4]!)
    897c:	e28db000 	add	fp, sp, #0
    8980:	e24dd00c 	sub	sp, sp, #12
    8984:	e50b0008 	str	r0, [fp, #-8]
    8988:	e50b100c 	str	r1, [fp, #-12]
    898c:	e51b200c 	ldr	r2, [fp, #-12]
    8990:	e1a03002 	mov	r3, r2
    8994:	e1a03103 	lsl	r3, r3, #2
    8998:	e0833002 	add	r3, r3, r2
    899c:	e1a02103 	lsl	r2, r3, #2
    89a0:	e0832002 	add	r2, r3, r2
    89a4:	e51b3008 	ldr	r3, [fp, #-8]
    89a8:	e0823003 	add	r3, r2, r3
    89ac:	e1a00003 	mov	r0, r3
    89b0:	e24bd000 	sub	sp, fp, #0
    89b4:	e49db004 	pop	{fp}		; (ldr fp, [sp], #4)
    89b8:	e12fff1e 	bx	lr

000089bc <optimize_me>:
    89bc:	e92d4870 	push	{r4, r5, r6, fp, lr}
    89c0:	e28db010 	add	fp, sp, #16
    89c4:	e24dd01c 	sub	sp, sp, #28
    89c8:	e50b0028 	str	r0, [fp, #-40]	; 0x28
    89cc:	e3a03000 	mov	r3, #0
    89d0:	e50b3018 	str	r3, [fp, #-24]
    89d4:	ea000037 	b	8ab8 <optimize_me+0xfc>
    89d8:	e3a03011 	mov	r3, #17
    89dc:	e50b3020 	str	r3, [fp, #-32]
    89e0:	e3a03000 	mov	r3, #0
    89e4:	e50b301c 	str	r3, [fp, #-28]
    89e8:	ea00002c 	b	8aa0 <optimize_me+0xe4>
    89ec:	e3a03002 	mov	r3, #2
    89f0:	e50b3024 	str	r3, [fp, #-36]	; 0x24
    89f4:	e51b3024 	ldr	r3, [fp, #-36]	; 0x24
    89f8:	e2833001 	add	r3, r3, #1
    89fc:	e50b3024 	str	r3, [fp, #-36]	; 0x24
    8a00:	e51b3024 	ldr	r3, [fp, #-36]	; 0x24
    8a04:	e2432002 	sub	r2, r3, #2
    8a08:	e1a03002 	mov	r3, r2
    8a0c:	e1a03083 	lsl	r3, r3, #1
    8a10:	e0833002 	add	r3, r3, r2
    8a14:	e50b3024 	str	r3, [fp, #-36]	; 0x24
    8a18:	e51b301c 	ldr	r3, [fp, #-28]
    8a1c:	e1a03103 	lsl	r3, r3, #2
    8a20:	e51b2028 	ldr	r2, [fp, #-40]	; 0x28
    8a24:	e0824003 	add	r4, r2, r3
    8a28:	e51b301c 	ldr	r3, [fp, #-28]
    8a2c:	e1a03103 	lsl	r3, r3, #2
    8a30:	e51b2028 	ldr	r2, [fp, #-40]	; 0x28
    8a34:	e0823003 	add	r3, r2, r3
    8a38:	e5933000 	ldr	r3, [r3]
    8a3c:	e51b2020 	ldr	r2, [fp, #-32]
    8a40:	e0030392 	mul	r3, r2, r3
    8a44:	e2835010 	add	r5, r3, #16
    8a48:	e51b3018 	ldr	r3, [fp, #-24]
    8a4c:	e1a03103 	lsl	r3, r3, #2
    8a50:	e51b2028 	ldr	r2, [fp, #-40]	; 0x28
    8a54:	e0823003 	add	r3, r2, r3
    8a58:	e5936000 	ldr	r6, [r3]
    8a5c:	e51b0018 	ldr	r0, [fp, #-24]
    8a60:	e51b101c 	ldr	r1, [fp, #-28]
    8a64:	ebffffc3 	bl	8978 <func>
    8a68:	e1a03000 	mov	r3, r0
    8a6c:	e0030396 	mul	r3, r6, r3
    8a70:	e0852003 	add	r2, r5, r3
    8a74:	e51b3024 	ldr	r3, [fp, #-36]	; 0x24
    8a78:	e0823003 	add	r3, r2, r3
    8a7c:	e283200f 	add	r2, r3, #15
    8a80:	e3530000 	cmp	r3, #0
    8a84:	b1a03002 	movlt	r3, r2
    8a88:	a1a03003 	movge	r3, r3
    8a8c:	e1a03243 	asr	r3, r3, #4
    8a90:	e5843000 	str	r3, [r4]
    8a94:	e51b301c 	ldr	r3, [fp, #-28]
    8a98:	e2833001 	add	r3, r3, #1
    8a9c:	e50b301c 	str	r3, [fp, #-28]
    8aa0:	e51b301c 	ldr	r3, [fp, #-28]
    8aa4:	e3530f7d 	cmp	r3, #500	; 0x1f4
    8aa8:	baffffcf 	blt	89ec <optimize_me+0x30>
    8aac:	e51b3018 	ldr	r3, [fp, #-24]
    8ab0:	e2833001 	add	r3, r3, #1
    8ab4:	e50b3018 	str	r3, [fp, #-24]
    8ab8:	e51b3018 	ldr	r3, [fp, #-24]
    8abc:	e3530f7d 	cmp	r3, #500	; 0x1f4
    8ac0:	baffffc4 	blt	89d8 <optimize_me+0x1c>
    8ac4:	e24bd010 	sub	sp, fp, #16
    8ac8:	e8bd4870 	pop	{r4, r5, r6, fp, lr}
    8acc:	e12fff1e 	bx	lr

00008ad0 <__aeabi_uldivmod>:
    8ad0:	e3530000 	cmp	r3, #0
    8ad4:	03520000 	cmpeq	r2, #0
    8ad8:	1a000004 	bne	8af0 <__aeabi_uldivmod+0x20>
    8adc:	e3510000 	cmp	r1, #0
    8ae0:	03500000 	cmpeq	r0, #0
    8ae4:	13e01000 	mvnne	r1, #0
    8ae8:	13e00000 	mvnne	r0, #0
    8aec:	ea000027 	b	8b90 <__aeabi_idiv0>
    8af0:	e24dd008 	sub	sp, sp, #8
    8af4:	e92d6000 	push	{sp, lr}
    8af8:	eb000014 	bl	8b50 <__gnu_uldivmod_helper>
    8afc:	e59de004 	ldr	lr, [sp, #4]
    8b00:	e28dd008 	add	sp, sp, #8
    8b04:	e8bd000c 	pop	{r2, r3}
    8b08:	e12fff1e 	bx	lr

00008b0c <__gnu_ldivmod_helper>:
    8b0c:	e92d47f0 	push	{r4, r5, r6, r7, r8, r9, sl, lr}
    8b10:	e59d6020 	ldr	r6, [sp, #32]
    8b14:	e1a07002 	mov	r7, r2
    8b18:	e1a0a003 	mov	sl, r3
    8b1c:	e1a04000 	mov	r4, r0
    8b20:	e1a05001 	mov	r5, r1
    8b24:	eb00001a 	bl	8b94 <__divdi3>
    8b28:	e1a03000 	mov	r3, r0
    8b2c:	e0020197 	mul	r2, r7, r1
    8b30:	e0898097 	umull	r8, r9, r7, r0
    8b34:	e023239a 	mla	r3, sl, r3, r2
    8b38:	e0544008 	subs	r4, r4, r8
    8b3c:	e0839009 	add	r9, r3, r9
    8b40:	e0c55009 	sbc	r5, r5, r9
    8b44:	e8860030 	stm	r6, {r4, r5}
    8b48:	e8bd47f0 	pop	{r4, r5, r6, r7, r8, r9, sl, lr}
    8b4c:	e12fff1e 	bx	lr

00008b50 <__gnu_uldivmod_helper>:
    8b50:	e92d41f0 	push	{r4, r5, r6, r7, r8, lr}
    8b54:	e59d5018 	ldr	r5, [sp, #24]
    8b58:	e1a04002 	mov	r4, r2
    8b5c:	e1a08003 	mov	r8, r3
    8b60:	e1a06000 	mov	r6, r0
    8b64:	e1a07001 	mov	r7, r1
    8b68:	eb000067 	bl	8d0c <__udivdi3>
    8b6c:	e0080890 	mul	r8, r0, r8
    8b70:	e0832490 	umull	r2, r3, r0, r4
    8b74:	e0248491 	mla	r4, r1, r4, r8
    8b78:	e0566002 	subs	r6, r6, r2
    8b7c:	e0843003 	add	r3, r4, r3
    8b80:	e0c77003 	sbc	r7, r7, r3
    8b84:	e88500c0 	stm	r5, {r6, r7}
    8b88:	e8bd41f0 	pop	{r4, r5, r6, r7, r8, lr}
    8b8c:	e12fff1e 	bx	lr

00008b90 <__aeabi_idiv0>:
    8b90:	e12fff1e 	bx	lr

00008b94 <__divdi3>:
    8b94:	e3510000 	cmp	r1, #0
    8b98:	e92d4ff8 	push	{r3, r4, r5, r6, r7, r8, r9, sl, fp, lr}
    8b9c:	a1a04000 	movge	r4, r0
    8ba0:	a1a05001 	movge	r5, r1
    8ba4:	a3a0a000 	movge	sl, #0
    8ba8:	ba000053 	blt	8cfc <__divdi3+0x168>
    8bac:	e3530000 	cmp	r3, #0
    8bb0:	a1a08002 	movge	r8, r2
    8bb4:	a1a09003 	movge	r9, r3
    8bb8:	ba00004b 	blt	8cec <__divdi3+0x158>
    8bbc:	e1550009 	cmp	r5, r9
    8bc0:	01540008 	cmpeq	r4, r8
    8bc4:	33a02000 	movcc	r2, #0
    8bc8:	33a03000 	movcc	r3, #0
    8bcc:	3a00003b 	bcc	8cc0 <__divdi3+0x12c>
    8bd0:	e1a01009 	mov	r1, r9
    8bd4:	e1a00008 	mov	r0, r8
    8bd8:	eb000093 	bl	8e2c <__clzdi2>
    8bdc:	e1a01005 	mov	r1, r5
    8be0:	e1a0b000 	mov	fp, r0
    8be4:	e1a00004 	mov	r0, r4
    8be8:	eb00008f 	bl	8e2c <__clzdi2>
    8bec:	e060000b 	rsb	r0, r0, fp
    8bf0:	e240e020 	sub	lr, r0, #32
    8bf4:	e1a07019 	lsl	r7, r9, r0
    8bf8:	e1877e18 	orr	r7, r7, r8, lsl lr
    8bfc:	e260c020 	rsb	ip, r0, #32
    8c00:	e1877c38 	orr	r7, r7, r8, lsr ip
    8c04:	e1550007 	cmp	r5, r7
    8c08:	e1a06018 	lsl	r6, r8, r0
    8c0c:	01540006 	cmpeq	r4, r6
    8c10:	e1a01000 	mov	r1, r0
    8c14:	33a02000 	movcc	r2, #0
    8c18:	33a03000 	movcc	r3, #0
    8c1c:	3a000005 	bcc	8c38 <__divdi3+0xa4>
    8c20:	e3a08001 	mov	r8, #1
    8c24:	e0544006 	subs	r4, r4, r6
    8c28:	e1a03e18 	lsl	r3, r8, lr
    8c2c:	e1833c38 	orr	r3, r3, r8, lsr ip
    8c30:	e0c55007 	sbc	r5, r5, r7
    8c34:	e1a02018 	lsl	r2, r8, r0
    8c38:	e3500000 	cmp	r0, #0
    8c3c:	0a00001f 	beq	8cc0 <__divdi3+0x12c>
    8c40:	e1b070a7 	lsrs	r7, r7, #1
    8c44:	e1a06066 	rrx	r6, r6
    8c48:	ea000007 	b	8c6c <__divdi3+0xd8>
    8c4c:	e0544006 	subs	r4, r4, r6
    8c50:	e0c55007 	sbc	r5, r5, r7
    8c54:	e0944004 	adds	r4, r4, r4
    8c58:	e0a55005 	adc	r5, r5, r5
    8c5c:	e2944001 	adds	r4, r4, #1
    8c60:	e2a55000 	adc	r5, r5, #0
    8c64:	e2500001 	subs	r0, r0, #1
    8c68:	0a000006 	beq	8c88 <__divdi3+0xf4>
    8c6c:	e1570005 	cmp	r7, r5
    8c70:	01560004 	cmpeq	r6, r4
    8c74:	9afffff4 	bls	8c4c <__divdi3+0xb8>
    8c78:	e0944004 	adds	r4, r4, r4
    8c7c:	e0a55005 	adc	r5, r5, r5
    8c80:	e2500001 	subs	r0, r0, #1
    8c84:	1afffff8 	bne	8c6c <__divdi3+0xd8>
    8c88:	e261c020 	rsb	ip, r1, #32
    8c8c:	e1a00134 	lsr	r0, r4, r1
    8c90:	e0922004 	adds	r2, r2, r4
    8c94:	e241e020 	sub	lr, r1, #32
    8c98:	e1800c15 	orr	r0, r0, r5, lsl ip
    8c9c:	e1a04135 	lsr	r4, r5, r1
    8ca0:	e1800e35 	orr	r0, r0, r5, lsr lr
    8ca4:	e1a07114 	lsl	r7, r4, r1
    8ca8:	e1877e10 	orr	r7, r7, r0, lsl lr
    8cac:	e1a06110 	lsl	r6, r0, r1
    8cb0:	e0a33005 	adc	r3, r3, r5
    8cb4:	e1877c30 	orr	r7, r7, r0, lsr ip
    8cb8:	e0522006 	subs	r2, r2, r6
    8cbc:	e0c33007 	sbc	r3, r3, r7
    8cc0:	e29a0000 	adds	r0, sl, #0
    8cc4:	13a00001 	movne	r0, #1
    8cc8:	e3a01000 	mov	r1, #0
    8ccc:	e2704000 	rsbs	r4, r0, #0
    8cd0:	e2e15000 	rsc	r5, r1, #0
    8cd4:	e0222004 	eor	r2, r2, r4
    8cd8:	e0233005 	eor	r3, r3, r5
    8cdc:	e0900002 	adds	r0, r0, r2
    8ce0:	e0a11003 	adc	r1, r1, r3
    8ce4:	e8bd4ff8 	pop	{r3, r4, r5, r6, r7, r8, r9, sl, fp, lr}
    8ce8:	e12fff1e 	bx	lr
    8cec:	e2728000 	rsbs	r8, r2, #0
    8cf0:	e1e0a00a 	mvn	sl, sl
    8cf4:	e2e39000 	rsc	r9, r3, #0
    8cf8:	eaffffaf 	b	8bbc <__divdi3+0x28>
    8cfc:	e2704000 	rsbs	r4, r0, #0
    8d00:	e2e15000 	rsc	r5, r1, #0
    8d04:	e3e0a000 	mvn	sl, #0
    8d08:	eaffffa7 	b	8bac <__divdi3+0x18>

00008d0c <__udivdi3>:
    8d0c:	e1510003 	cmp	r1, r3
    8d10:	01500002 	cmpeq	r0, r2
    8d14:	e92d47f0 	push	{r4, r5, r6, r7, r8, r9, sl, lr}
    8d18:	e1a04000 	mov	r4, r0
    8d1c:	e1a05001 	mov	r5, r1
    8d20:	e1a08002 	mov	r8, r2
    8d24:	e1a09003 	mov	r9, r3
    8d28:	33a00000 	movcc	r0, #0
    8d2c:	33a01000 	movcc	r1, #0
    8d30:	3a00003b 	bcc	8e24 <__udivdi3+0x118>
    8d34:	e1a01003 	mov	r1, r3
    8d38:	e1a00002 	mov	r0, r2
    8d3c:	eb00003a 	bl	8e2c <__clzdi2>
    8d40:	e1a01005 	mov	r1, r5
    8d44:	e1a0a000 	mov	sl, r0
    8d48:	e1a00004 	mov	r0, r4
    8d4c:	eb000036 	bl	8e2c <__clzdi2>
    8d50:	e060300a 	rsb	r3, r0, sl
    8d54:	e243e020 	sub	lr, r3, #32
    8d58:	e1a07319 	lsl	r7, r9, r3
    8d5c:	e1877e18 	orr	r7, r7, r8, lsl lr
    8d60:	e263c020 	rsb	ip, r3, #32
    8d64:	e1877c38 	orr	r7, r7, r8, lsr ip
    8d68:	e1550007 	cmp	r5, r7
    8d6c:	e1a06318 	lsl	r6, r8, r3
    8d70:	01540006 	cmpeq	r4, r6
    8d74:	e1a02003 	mov	r2, r3
    8d78:	33a00000 	movcc	r0, #0
    8d7c:	33a01000 	movcc	r1, #0
    8d80:	3a000005 	bcc	8d9c <__udivdi3+0x90>
    8d84:	e3a08001 	mov	r8, #1
    8d88:	e0544006 	subs	r4, r4, r6
    8d8c:	e1a01e18 	lsl	r1, r8, lr
    8d90:	e1811c38 	orr	r1, r1, r8, lsr ip
    8d94:	e0c55007 	sbc	r5, r5, r7
    8d98:	e1a00318 	lsl	r0, r8, r3
    8d9c:	e3530000 	cmp	r3, #0
    8da0:	0a00001f 	beq	8e24 <__udivdi3+0x118>
    8da4:	e1b070a7 	lsrs	r7, r7, #1
    8da8:	e1a06066 	rrx	r6, r6
    8dac:	ea000007 	b	8dd0 <__udivdi3+0xc4>
    8db0:	e0544006 	subs	r4, r4, r6
    8db4:	e0c55007 	sbc	r5, r5, r7
    8db8:	e0944004 	adds	r4, r4, r4
    8dbc:	e0a55005 	adc	r5, r5, r5
    8dc0:	e2944001 	adds	r4, r4, #1
    8dc4:	e2a55000 	adc	r5, r5, #0
    8dc8:	e2533001 	subs	r3, r3, #1
    8dcc:	0a000006 	beq	8dec <__udivdi3+0xe0>
    8dd0:	e1570005 	cmp	r7, r5
    8dd4:	01560004 	cmpeq	r6, r4
    8dd8:	9afffff4 	bls	8db0 <__udivdi3+0xa4>
    8ddc:	e0944004 	adds	r4, r4, r4
    8de0:	e0a55005 	adc	r5, r5, r5
    8de4:	e2533001 	subs	r3, r3, #1
    8de8:	1afffff8 	bne	8dd0 <__udivdi3+0xc4>
    8dec:	e0948000 	adds	r8, r4, r0
    8df0:	e0a59001 	adc	r9, r5, r1
    8df4:	e1a03234 	lsr	r3, r4, r2
    8df8:	e2621020 	rsb	r1, r2, #32
    8dfc:	e2420020 	sub	r0, r2, #32
    8e00:	e1833115 	orr	r3, r3, r5, lsl r1
    8e04:	e1a0c235 	lsr	ip, r5, r2
    8e08:	e1833035 	orr	r3, r3, r5, lsr r0
    8e0c:	e1a0721c 	lsl	r7, ip, r2
    8e10:	e1877013 	orr	r7, r7, r3, lsl r0
    8e14:	e1a06213 	lsl	r6, r3, r2
    8e18:	e1877133 	orr	r7, r7, r3, lsr r1
    8e1c:	e0580006 	subs	r0, r8, r6
    8e20:	e0c91007 	sbc	r1, r9, r7
    8e24:	e8bd47f0 	pop	{r4, r5, r6, r7, r8, r9, sl, lr}
    8e28:	e12fff1e 	bx	lr

00008e2c <__clzdi2>:
    8e2c:	e92d4010 	push	{r4, lr}
    8e30:	e3510000 	cmp	r1, #0
    8e34:	1a000002 	bne	8e44 <__clzdi2+0x18>
    8e38:	eb000005 	bl	8e54 <__clzsi2>
    8e3c:	e2800020 	add	r0, r0, #32
    8e40:	ea000001 	b	8e4c <__clzdi2+0x20>
    8e44:	e1a00001 	mov	r0, r1
    8e48:	eb000001 	bl	8e54 <__clzsi2>
    8e4c:	e8bd4010 	pop	{r4, lr}
    8e50:	e12fff1e 	bx	lr

00008e54 <__clzsi2>:
    8e54:	e3a0101c 	mov	r1, #28
    8e58:	e3500801 	cmp	r0, #65536	; 0x10000
    8e5c:	21a00820 	lsrcs	r0, r0, #16
    8e60:	22411010 	subcs	r1, r1, #16
    8e64:	e3500c01 	cmp	r0, #256	; 0x100
    8e68:	21a00420 	lsrcs	r0, r0, #8
    8e6c:	22411008 	subcs	r1, r1, #8
    8e70:	e3500010 	cmp	r0, #16
    8e74:	21a00220 	lsrcs	r0, r0, #4
    8e78:	22411004 	subcs	r1, r1, #4
    8e7c:	e28f2008 	add	r2, pc, #8
    8e80:	e7d20000 	ldrb	r0, [r2, r0]
    8e84:	e0800001 	add	r0, r0, r1
    8e88:	e12fff1e 	bx	lr
    8e8c:	02020304 	andeq	r0, r2, #4, 6	; 0x10000000
    8e90:	01010101 	tsteq	r1, r1, lsl #2
	...
